; Function Attrs: nounwind uwtable
define range(i32 0, 2) i32 @DH_check_ex(ptr noundef %0) local_unnamed_addr #0 {
  %2 = alloca i32, align 4
  call void @llvm.lifetime.start.p0(i64 4, ptr nonnull %2) #3
  %3 = call i32 @DH_check(ptr noundef %0, ptr noundef nonnull %2)
  %.not = icmp eq i32 %3, 0
  br i1 %.not, label %35, label %4

4:                                                ; preds = %1
  %5 = load i32, ptr %2, align 4, !tbaa !3
  %6 = and i32 %5, 8
  %.not1 = icmp eq i32 %6, 0
  br i1 %.not1, label %8, label %7

7:                                                ; preds = %4
  tail call void @ERR_new() #3
  tail call void @ERR_set_debug(ptr noundef nonnull @.str, i32 noundef 119, ptr noundef nonnull @__func__.DH_check_ex) #3
  tail call void (i32, i32, ptr, ...) @ERR_set_error(i32 noundef 5, i32 noundef 120, ptr noundef null) #3
  br label %8

8:                                                ; preds = %7, %4
  %9 = and i32 %5, 16
  %.not2 = icmp eq i32 %9, 0
  br i1 %.not2, label %11, label %10

10:                                               ; preds = %8
  tail call void @ERR_new() #3
  tail call void @ERR_set_debug(ptr noundef nonnull @.str, i32 noundef 121, ptr noundef nonnull @__func__.DH_check_ex) #3
  tail call void (i32, i32, ptr, ...) @ERR_set_error(i32 noundef 5, i32 noundef 119, ptr noundef null) #3
  br label %11

11:                                               ; preds = %10, %8
  %12 = and i32 %5, 32
  %.not3 = icmp eq i32 %12, 0
  br i1 %.not3, label %14, label %13

13:                                               ; preds = %11
  tail call void @ERR_new() #3
  tail call void @ERR_set_debug(ptr noundef nonnull @.str, i32 noundef 123, ptr noundef nonnull @__func__.DH_check_ex) #3
  tail call void (i32, i32, ptr, ...) @ERR_set_error(i32 noundef 5, i32 noundef 116, ptr noundef null) #3
  br label %14

14:                                               ; preds = %13, %11
  %15 = and i32 %5, 64
  %.not4 = icmp eq i32 %15, 0
  br i1 %.not4, label %17, label %16

16:                                               ; preds = %14
  tail call void @ERR_new() #3
  tail call void @ERR_set_debug(ptr noundef nonnull @.str, i32 noundef 125, ptr noundef nonnull @__func__.DH_check_ex) #3
  tail call void (i32, i32, ptr, ...) @ERR_set_error(i32 noundef 5, i32 noundef 115, ptr noundef null) #3
  br label %17

17:                                               ; preds = %16, %14
  %18 = and i32 %5, 4
  %.not5 = icmp eq i32 %18, 0
  br i1 %.not5, label %20, label %19

19:                                               ; preds = %17
  tail call void @ERR_new() #3
  tail call void @ERR_set_debug(ptr noundef nonnull @.str, i32 noundef 127, ptr noundef nonnull @__func__.DH_check_ex) #3
  tail call void (i32, i32, ptr, ...) @ERR_set_error(i32 noundef 5, i32 noundef 121, ptr noundef null) #3
  br label %20

20:                                               ; preds = %19, %17
  %21 = and i32 %5, 1
  %.not6 = icmp eq i32 %21, 0
  br i1 %.not6, label %23, label %22

22:                                               ; preds = %20
  tail call void @ERR_new() #3
  tail call void @ERR_set_debug(ptr noundef nonnull @.str, i32 noundef 129, ptr noundef nonnull @__func__.DH_check_ex) #3
  tail call void (i32, i32, ptr, ...) @ERR_set_error(i32 noundef 5, i32 noundef 117, ptr noundef null) #3
  br label %23

23:                                               ; preds = %22, %20
  %24 = and i32 %5, 2
  %.not7 = icmp eq i32 %24, 0
  br i1 %.not7, label %26, label %25

25:                                               ; preds = %23
  tail call void @ERR_new() #3
  tail call void @ERR_set_debug(ptr noundef nonnull @.str, i32 noundef 131, ptr noundef nonnull @__func__.DH_check_ex) #3
  tail call void (i32, i32, ptr, ...) @ERR_set_error(i32 noundef 5, i32 noundef 118, ptr noundef null) #3
  br label %26

26:                                               ; preds = %25, %23
  %27 = and i32 %5, 128
  %.not8 = icmp eq i32 %27, 0
  br i1 %.not8, label %29, label %28

28:                                               ; preds = %26
  tail call void @ERR_new() #3
  tail call void @ERR_set_debug(ptr noundef nonnull @.str, i32 noundef 133, ptr noundef nonnull @__func__.DH_check_ex) #3
  tail call void (i32, i32, ptr, ...) @ERR_set_error(i32 noundef 5, i32 noundef 126, ptr noundef null) #3
  br label %29

29:                                               ; preds = %28, %26
  %30 = and i32 %5, 256
  %.not9 = icmp eq i32 %30, 0
  br i1 %.not9, label %32, label %31

31:                                               ; preds = %29
  tail call void @ERR_new() #3
  tail call void @ERR_set_debug(ptr noundef nonnull @.str, i32 noundef 135, ptr noundef nonnull @__func__.DH_check_ex) #3
  tail call void (i32, i32, ptr, ...) @ERR_set_error(i32 noundef 5, i32 noundef 103, ptr noundef null) #3
  br label %32

32:                                               ; preds = %31, %29
  %33 = icmp eq i32 %5, 0
  %34 = zext i1 %33 to i32
  br label %35

35:                                               ; preds = %1, %32
  %.0 = phi i32 [ %34, %32 ], [ 0, %1 ]
  call void @llvm.lifetime.end.p0(i64 4, ptr nonnull %2) #3
  ret i32 %.0
}